target datalayout = "e-m:e-p270:32:32-p271:32:32-p272:64:64-i64:64-i128:128-f80:128-n8:16:32:64-S128"
target triple = "x86_64-pc-linux-gnu"

%struct.pager_command_config_data = type { ptr, i32, ptr }

@.str.17 = private unnamed_addr constant [7 x i8] c"pager.\00", align 1

; Function Attrs: inlinehint nounwind uwtable
define internal zeroext i1 @skip_prefix(ptr noundef %0, ptr noundef %1, ptr noundef %2) #7 {
  %4 = alloca i1, align 1
  %5 = alloca ptr, align 8
  %6 = alloca ptr, align 8
  %7 = alloca ptr, align 8
  store ptr %0, ptr %5, align 8, !tbaa !13
  store ptr %1, ptr %6, align 8, !tbaa !13
  store ptr %2, ptr %7, align 8, !tbaa !28
  br label %8

8:                                                ; preds = %16, %3
  %9 = load ptr, ptr %6, align 8, !tbaa !13
  %10 = load i8, ptr %9, align 1, !tbaa !15
  %11 = icmp ne i8 %10, 0
  br i1 %11, label %15, label %12

12:                                               ; preds = %8
  %13 = load ptr, ptr %5, align 8, !tbaa !13
  %14 = load ptr, ptr %7, align 8, !tbaa !28
  store ptr %13, ptr %14, align 8, !tbaa !13
  store i1 true, ptr %4, align 1
  br label %27

15:                                               ; preds = %8
  br label %16

16:                                               ; preds = %15
  %17 = load ptr, ptr %5, align 8, !tbaa !13
  %18 = getelementptr inbounds nuw i8, ptr %17, i32 1
  store ptr %18, ptr %5, align 8, !tbaa !13
  %19 = load i8, ptr %17, align 1, !tbaa !15
  %20 = sext i8 %19 to i32
  %21 = load ptr, ptr %6, align 8, !tbaa !13
  %22 = getelementptr inbounds nuw i8, ptr %21, i32 1
  store ptr %22, ptr %6, align 8, !tbaa !13
  %23 = load i8, ptr %21, align 1, !tbaa !15
  %24 = sext i8 %23 to i32
  %25 = icmp eq i32 %20, %24
  br i1 %25, label %8, label %26, !llvm.loop !43

26:                                               ; preds = %16
  store i1 false, ptr %4, align 1
  br label %27

27:                                               ; preds = %26, %12
  %28 = load i1, ptr %4, align 1
  ret i1 %28
}

; Function Attrs: nounwind uwtable
define internal i32 @pager_command_config(ptr noundef %0, ptr noundef %1, ptr noundef %2, ptr noundef %3) #0 {
  %5 = alloca ptr, align 8
  %6 = alloca ptr, align 8
  %7 = alloca ptr, align 8
  %8 = alloca ptr, align 8
  %9 = alloca ptr, align 8
  %10 = alloca ptr, align 8
  %11 = alloca i32, align 4
  store ptr %0, ptr %5, align 8, !tbaa !13
  store ptr %1, ptr %6, align 8, !tbaa !13
  store ptr %2, ptr %7, align 8, !tbaa !16
  store ptr %3, ptr %8, align 8, !tbaa !18
  call void @llvm.lifetime.start.p0(i64 8, ptr %9) #8
  %12 = load ptr, ptr %8, align 8, !tbaa !18
  store ptr %12, ptr %9, align 8, !tbaa !41
  call void @llvm.lifetime.start.p0(i64 8, ptr %10) #8
  %13 = load ptr, ptr %5, align 8, !tbaa !13
  %14 = call zeroext i1 @skip_prefix(ptr noundef %13, ptr noundef @.str.17, ptr noundef %10)
  br i1 %14, label %15, label %39

15:                                               ; preds = %4
  %16 = load ptr, ptr %10, align 8, !tbaa !13
  %17 = load ptr, ptr %9, align 8, !tbaa !41
  %18 = getelementptr inbounds nuw %struct.pager_command_config_data, ptr %17, i32 0, i32 0
  %19 = load ptr, ptr %18, align 8, !tbaa !37
  %20 = call i32 @strcmp(ptr noundef %16, ptr noundef %19) #9
  %21 = icmp ne i32 %20, 0
  br i1 %21, label %39, label %22

22:                                               ; preds = %15
  call void @llvm.lifetime.start.p0(i64 4, ptr %11) #8
  %23 = load ptr, ptr %6, align 8, !tbaa !13
  %24 = call i32 @git_parse_maybe_bool(ptr noundef %23)
  store i32 %24, ptr %11, align 4, !tbaa !4
  %25 = load i32, ptr %11, align 4, !tbaa !4
  %26 = icmp sge i32 %25, 0
  br i1 %26, label %27, label %31

27:                                               ; preds = %22
  %28 = load i32, ptr %11, align 4, !tbaa !4
  %29 = load ptr, ptr %9, align 8, !tbaa !41
  %30 = getelementptr inbounds nuw %struct.pager_command_config_data, ptr %29, i32 0, i32 1
  store i32 %28, ptr %30, align 8, !tbaa !39
  br label %38

31:                                               ; preds = %22
  %32 = load ptr, ptr %9, align 8, !tbaa !41
  %33 = getelementptr inbounds nuw %struct.pager_command_config_data, ptr %32, i32 0, i32 1
  store i32 1, ptr %33, align 8, !tbaa !39
  %34 = load ptr, ptr %6, align 8, !tbaa !13
  %35 = call ptr @xstrdup(ptr noundef %34)
  %36 = load ptr, ptr %9, align 8, !tbaa !41
  %37 = getelementptr inbounds nuw %struct.pager_command_config_data, ptr %36, i32 0, i32 2
  store ptr %35, ptr %37, align 8, !tbaa !40
  br label %38

38:                                               ; preds = %31, %27
  call void @llvm.lifetime.end.p0(i64 4, ptr %11) #8
  br label %39

39:                                               ; preds = %38, %15, %4
  call void @llvm.lifetime.end.p0(i64 8, ptr %10) #8
  call void @llvm.lifetime.end.p0(i64 8, ptr %9) #8
  ret i32 0
}